target datalayout = "e-m:e-p270:32:32-p271:32:32-p272:64:64-i64:64-i128:128-f80:128-n8:16:32:64-S128"
target triple = "x86_64-unknown-linux-gnu"

%"class.icu_75::CollationRuleParser" = type <{ ptr, ptr, ptr, ptr, ptr, ptr, ptr, ptr, ptr, i32, [4 x i8] }>
%"class.icu_75::UnicodeString" = type { %"class.icu_75::Replaceable", %"union.icu_75::UnicodeString::StackBufferOrFields" }
%"class.icu_75::Replaceable" = type { %"class.icu_75::UObject" }
%"class.icu_75::UObject" = type { ptr }
%"union.icu_75::UnicodeString::StackBufferOrFields" = type { %struct.anon.0, [32 x i8] }
%struct.anon.0 = type { i16, i32, i32, ptr }
%struct.anon = type { i16, [27 x i16] }

@.str = private unnamed_addr constant [39 x i8] c"expected a reset or setting or comment\00", align 1

; Function Attrs: mustprogress nounwind uwtable
define linkonce_odr noundef ptr @_ZNK6icu_7513UnicodeString13getArrayStartEv(ptr noundef nonnull align 8 dereferenceable(64) %this) #0 comdat align 2 {
entry:
  %this.addr = alloca ptr, align 8
  store ptr %this, ptr %this.addr, align 8
  %this1 = load ptr, ptr %this.addr, align 8
  %fUnion = getelementptr inbounds %"class.icu_75::UnicodeString", ptr %this1, i32 0, i32 1
  %fLengthAndFlags = getelementptr inbounds %struct.anon.0, ptr %fUnion, i32 0, i32 0
  %0 = load i16, ptr %fLengthAndFlags, align 8
  %conv = sext i16 %0 to i32
  %and = and i32 %conv, 2
  %tobool = icmp ne i32 %and, 0
  br i1 %tobool, label %cond.true, label %cond.false

cond.true:                                        ; preds = %entry
  %fUnion2 = getelementptr inbounds %"class.icu_75::UnicodeString", ptr %this1, i32 0, i32 1
  %fBuffer = getelementptr inbounds %struct.anon, ptr %fUnion2, i32 0, i32 1
  %arraydecay = getelementptr inbounds [27 x i16], ptr %fBuffer, i64 0, i64 0
  br label %cond.end

cond.false:                                       ; preds = %entry
  %fUnion3 = getelementptr inbounds %"class.icu_75::UnicodeString", ptr %this1, i32 0, i32 1
  %fArray = getelementptr inbounds %struct.anon.0, ptr %fUnion3, i32 0, i32 3
  %1 = load ptr, ptr %fArray, align 8
  br label %cond.end

cond.end:                                         ; preds = %cond.false, %cond.true
  %cond = phi ptr [ %arraydecay, %cond.true ], [ %1, %cond.false ]
  ret ptr %cond
}

; Function Attrs: mustprogress uwtable
define linkonce_odr noundef zeroext i16 @_ZNK6icu_7513UnicodeString8doCharAtEi(ptr noundef nonnull align 8 dereferenceable(64) %this, i32 noundef %offset) #1 comdat align 2 {
entry:
  %retval = alloca i16, align 2
  %this.addr = alloca ptr, align 8
  %offset.addr = alloca i32, align 4
  store ptr %this, ptr %this.addr, align 8
  store i32 %offset, ptr %offset.addr, align 4
  %this1 = load ptr, ptr %this.addr, align 8
  %0 = load i32, ptr %offset.addr, align 4
  %call = call noundef i32 @_ZNK6icu_7513UnicodeString6lengthEv(ptr noundef nonnull align 8 dereferenceable(64) %this1)
  %cmp = icmp ult i32 %0, %call
  br i1 %cmp, label %if.then, label %if.else

if.then:                                          ; preds = %entry
  %call2 = call noundef ptr @_ZNK6icu_7513UnicodeString13getArrayStartEv(ptr noundef nonnull align 8 dereferenceable(64) %this1)
  %1 = load i32, ptr %offset.addr, align 4
  %idxprom = sext i32 %1 to i64
  %arrayidx = getelementptr inbounds i16, ptr %call2, i64 %idxprom
  %2 = load i16, ptr %arrayidx, align 2
  store i16 %2, ptr %retval, align 2
  br label %return

if.else:                                          ; preds = %entry
  store i16 -1, ptr %retval, align 2
  br label %return

return:                                           ; preds = %if.else, %if.then
  %3 = load i16, ptr %retval, align 2
  ret i16 %3
}

; Function Attrs: mustprogress nounwind uwtable
define linkonce_odr noundef i32 @_ZNK6icu_7513UnicodeString14getShortLengthEv(ptr noundef nonnull align 8 dereferenceable(64) %this) #0 comdat align 2 {
entry:
  %this.addr = alloca ptr, align 8
  store ptr %this, ptr %this.addr, align 8
  %this1 = load ptr, ptr %this.addr, align 8
  %fUnion = getelementptr inbounds %"class.icu_75::UnicodeString", ptr %this1, i32 0, i32 1
  %fLengthAndFlags = getelementptr inbounds %struct.anon.0, ptr %fUnion, i32 0, i32 0
  %0 = load i16, ptr %fLengthAndFlags, align 8
  %conv = sext i16 %0 to i32
  %shr = ashr i32 %conv, 5
  ret i32 %shr
}

; Function Attrs: mustprogress nounwind uwtable
define linkonce_odr noundef signext i8 @_ZNK6icu_7513UnicodeString14hasShortLengthEv(ptr noundef nonnull align 8 dereferenceable(64) %this) #0 comdat align 2 {
entry:
  %this.addr = alloca ptr, align 8
  store ptr %this, ptr %this.addr, align 8
  %this1 = load ptr, ptr %this.addr, align 8
  %fUnion = getelementptr inbounds %"class.icu_75::UnicodeString", ptr %this1, i32 0, i32 1
  %fLengthAndFlags = getelementptr inbounds %struct.anon.0, ptr %fUnion, i32 0, i32 0
  %0 = load i16, ptr %fLengthAndFlags, align 8
  %conv = sext i16 %0 to i32
  %cmp = icmp sge i32 %conv, 0
  %conv2 = zext i1 %cmp to i8
  ret i8 %conv2
}

; Function Attrs: mustprogress uwtable
define void @_ZN6icu_7519CollationRuleParser13setParseErrorEPKcR10UErrorCode(ptr noundef nonnull align 8 dereferenceable(76) %this, ptr noundef %reason, ptr noundef nonnull align 4 dereferenceable(4) %errorCode) #1 align 2 {
entry:
  %this.addr = alloca ptr, align 8
  %reason.addr = alloca ptr, align 8
  %errorCode.addr = alloca ptr, align 8
  store ptr %this, ptr %this.addr, align 8
  store ptr %reason, ptr %reason.addr, align 8
  store ptr %errorCode, ptr %errorCode.addr, align 8
  %this1 = load ptr, ptr %this.addr, align 8
  %0 = load ptr, ptr %errorCode.addr, align 8
  %1 = load i32, ptr %0, align 4
  %call = call noundef signext i8 @_ZL9U_FAILURE10UErrorCode(i32 noundef %1)
  %tobool = icmp ne i8 %call, 0
  br i1 %tobool, label %if.then, label %if.end

if.then:                                          ; preds = %entry
  br label %if.end3

if.end:                                           ; preds = %entry
  %2 = load ptr, ptr %errorCode.addr, align 8
  store i32 3, ptr %2, align 4
  %3 = load ptr, ptr %reason.addr, align 8
  %errorReason = getelementptr inbounds %"class.icu_75::CollationRuleParser", ptr %this1, i32 0, i32 6
  store ptr %3, ptr %errorReason, align 8
  %parseError = getelementptr inbounds %"class.icu_75::CollationRuleParser", ptr %this1, i32 0, i32 5
  %4 = load ptr, ptr %parseError, align 8
  %cmp = icmp ne ptr %4, null
  br i1 %cmp, label %if.then2, label %if.end3

if.then2:                                         ; preds = %if.end
  call void @_ZN6icu_7519CollationRuleParser15setErrorContextEv(ptr noundef nonnull align 8 dereferenceable(76) %this1)
  br label %if.end3

if.end3:                                          ; preds = %if.then2, %if.end, %if.then
  ret void
}

; Function Attrs: mustprogress uwtable
define linkonce_odr noundef zeroext i16 @_ZNK6icu_7513UnicodeString6charAtEi(ptr noundef nonnull align 8 dereferenceable(64) %this, i32 noundef %offset) #1 comdat align 2 {
entry:
  %this.addr = alloca ptr, align 8
  %offset.addr = alloca i32, align 4
  store ptr %this, ptr %this.addr, align 8
  store i32 %offset, ptr %offset.addr, align 4
  %this1 = load ptr, ptr %this.addr, align 8
  %0 = load i32, ptr %offset.addr, align 4
  %call = call noundef zeroext i16 @_ZNK6icu_7513UnicodeString8doCharAtEi(ptr noundef nonnull align 8 dereferenceable(64) %this1, i32 noundef %0)
  ret i16 %call
}

; Function Attrs: mustprogress uwtable
define linkonce_odr noundef i32 @_ZNK6icu_7513UnicodeString6lengthEv(ptr noundef nonnull align 8 dereferenceable(64) %this) #1 comdat align 2 {
entry:
  %this.addr = alloca ptr, align 8
  store ptr %this, ptr %this.addr, align 8
  %this1 = load ptr, ptr %this.addr, align 8
  %call = call noundef signext i8 @_ZNK6icu_7513UnicodeString14hasShortLengthEv(ptr noundef nonnull align 8 dereferenceable(64) %this1)
  %tobool = icmp ne i8 %call, 0
  br i1 %tobool, label %cond.true, label %cond.false

cond.true:                                        ; preds = %entry
  %call2 = call noundef i32 @_ZNK6icu_7513UnicodeString14getShortLengthEv(ptr noundef nonnull align 8 dereferenceable(64) %this1)
  br label %cond.end

cond.false:                                       ; preds = %entry
  %fUnion = getelementptr inbounds %"class.icu_75::UnicodeString", ptr %this1, i32 0, i32 1
  %fLength = getelementptr inbounds %struct.anon.0, ptr %fUnion, i32 0, i32 1
  %0 = load i32, ptr %fLength, align 4
  br label %cond.end

cond.end:                                         ; preds = %cond.false, %cond.true
  %cond = phi i32 [ %call2, %cond.true ], [ %0, %cond.false ]
  ret i32 %cond
}

; Function Attrs: mustprogress nounwind uwtable
define internal noundef signext i8 @_ZL9U_FAILURE10UErrorCode(i32 noundef %code) #0 {
entry:
  %code.addr = alloca i32, align 4
  store i32 %code, ptr %code.addr, align 4
  %0 = load i32, ptr %code.addr, align 4
  %cmp = icmp sgt i32 %0, 0
  %conv = zext i1 %cmp to i8
  ret i8 %conv
}

; Function Attrs: mustprogress uwtable
define void @_ZN6icu_7519CollationRuleParser5parseERKNS_13UnicodeStringER10UErrorCode(ptr noundef nonnull align 8 dereferenceable(76) %this, ptr noundef nonnull align 8 dereferenceable(64) %ruleString, ptr noundef nonnull align 4 dereferenceable(4) %errorCode) #1 align 2 {
entry:
  %this.addr = alloca ptr, align 8
  %ruleString.addr = alloca ptr, align 8
  %errorCode.addr = alloca ptr, align 8
  %c = alloca i16, align 2
  store ptr %this, ptr %this.addr, align 8
  store ptr %ruleString, ptr %ruleString.addr, align 8
  store ptr %errorCode, ptr %errorCode.addr, align 8
  %this1 = load ptr, ptr %this.addr, align 8
  %0 = load ptr, ptr %errorCode.addr, align 8
  %1 = load i32, ptr %0, align 4
  %call = call noundef signext i8 @_ZL9U_FAILURE10UErrorCode(i32 noundef %1)
  %tobool = icmp ne i8 %call, 0
  br i1 %tobool, label %if.then, label %if.end

if.then:                                          ; preds = %entry
  br label %while.end

if.end:                                           ; preds = %entry
  %2 = load ptr, ptr %ruleString.addr, align 8
  %rules = getelementptr inbounds %"class.icu_75::CollationRuleParser", ptr %this1, i32 0, i32 2
  store ptr %2, ptr %rules, align 8
  %ruleIndex = getelementptr inbounds %"class.icu_75::CollationRuleParser", ptr %this1, i32 0, i32 9
  store i32 0, ptr %ruleIndex, align 8
  br label %while.cond

while.cond:                                       ; preds = %if.end28, %if.then10, %if.end
  %ruleIndex2 = getelementptr inbounds %"class.icu_75::CollationRuleParser", ptr %this1, i32 0, i32 9
  %3 = load i32, ptr %ruleIndex2, align 8
  %rules3 = getelementptr inbounds %"class.icu_75::CollationRuleParser", ptr %this1, i32 0, i32 2
  %4 = load ptr, ptr %rules3, align 8
  %call4 = call noundef i32 @_ZNK6icu_7513UnicodeString6lengthEv(ptr noundef nonnull align 8 dereferenceable(64) %4)
  %cmp = icmp slt i32 %3, %call4
  br i1 %cmp, label %while.body, label %while.end

while.body:                                       ; preds = %while.cond
  %rules5 = getelementptr inbounds %"class.icu_75::CollationRuleParser", ptr %this1, i32 0, i32 2
  %5 = load ptr, ptr %rules5, align 8
  %ruleIndex6 = getelementptr inbounds %"class.icu_75::CollationRuleParser", ptr %this1, i32 0, i32 9
  %6 = load i32, ptr %ruleIndex6, align 8
  %call7 = call noundef zeroext i16 @_ZNK6icu_7513UnicodeString6charAtEi(ptr noundef nonnull align 8 dereferenceable(64) %5, i32 noundef %6)
  store i16 %call7, ptr %c, align 2
  %7 = load i16, ptr %c, align 2
  %conv = zext i16 %7 to i32
  %call8 = call noundef signext i8 @_ZN6icu_7512PatternProps12isWhiteSpaceEi(i32 noundef %conv)
  %tobool9 = icmp ne i8 %call8, 0
  br i1 %tobool9, label %if.then10, label %if.end12

if.then10:                                        ; preds = %while.body
  %ruleIndex11 = getelementptr inbounds %"class.icu_75::CollationRuleParser", ptr %this1, i32 0, i32 9
  %8 = load i32, ptr %ruleIndex11, align 8
  %inc = add nsw i32 %8, 1
  store i32 %inc, ptr %ruleIndex11, align 8
  br label %while.cond, !llvm.loop !4

if.end12:                                         ; preds = %while.body
  %9 = load i16, ptr %c, align 2
  %conv13 = zext i16 %9 to i32
  switch i32 %conv13, label %sw.default [
    i32 38, label %sw.bb
    i32 91, label %sw.bb14
    i32 35, label %sw.bb15
    i32 64, label %sw.bb19
    i32 33, label %sw.bb22
  ]

sw.bb:                                            ; preds = %if.end12
  %10 = load ptr, ptr %errorCode.addr, align 8
  call void @_ZN6icu_7519CollationRuleParser14parseRuleChainER10UErrorCode(ptr noundef nonnull align 8 dereferenceable(76) %this1, ptr noundef nonnull align 4 dereferenceable(4) %10)
  br label %sw.epilog

sw.bb14:                                          ; preds = %if.end12
  %11 = load ptr, ptr %errorCode.addr, align 8
  call void @_ZN6icu_7519CollationRuleParser12parseSettingER10UErrorCode(ptr noundef nonnull align 8 dereferenceable(76) %this1, ptr noundef nonnull align 4 dereferenceable(4) %11)
  br label %sw.epilog

sw.bb15:                                          ; preds = %if.end12
  %ruleIndex16 = getelementptr inbounds %"class.icu_75::CollationRuleParser", ptr %this1, i32 0, i32 9
  %12 = load i32, ptr %ruleIndex16, align 8
  %add = add nsw i32 %12, 1
  %call17 = call noundef i32 @_ZNK6icu_7519CollationRuleParser11skipCommentEi(ptr noundef nonnull align 8 dereferenceable(76) %this1, i32 noundef %add)
  %ruleIndex18 = getelementptr inbounds %"class.icu_75::CollationRuleParser", ptr %this1, i32 0, i32 9
  store i32 %call17, ptr %ruleIndex18, align 8
  br label %sw.epilog

sw.bb19:                                          ; preds = %if.end12
  %settings = getelementptr inbounds %"class.icu_75::CollationRuleParser", ptr %this1, i32 0, i32 4
  %13 = load ptr, ptr %settings, align 8
  %14 = load ptr, ptr %errorCode.addr, align 8
  call void @_ZN6icu_7517CollationSettings7setFlagEi18UColAttributeValueiR10UErrorCode(ptr noundef nonnull align 8 dereferenceable(852) %13, i32 noundef 2048, i32 noundef 17, i32 noundef 0, ptr noundef nonnull align 4 dereferenceable(4) %14)
  %ruleIndex20 = getelementptr inbounds %"class.icu_75::CollationRuleParser", ptr %this1, i32 0, i32 9
  %15 = load i32, ptr %ruleIndex20, align 8
  %inc21 = add nsw i32 %15, 1
  store i32 %inc21, ptr %ruleIndex20, align 8
  br label %sw.epilog

sw.bb22:                                          ; preds = %if.end12
  %ruleIndex23 = getelementptr inbounds %"class.icu_75::CollationRuleParser", ptr %this1, i32 0, i32 9
  %16 = load i32, ptr %ruleIndex23, align 8
  %inc24 = add nsw i32 %16, 1
  store i32 %inc24, ptr %ruleIndex23, align 8
  br label %sw.epilog

sw.default:                                       ; preds = %if.end12
  %17 = load ptr, ptr %errorCode.addr, align 8
  call void @_ZN6icu_7519CollationRuleParser13setParseErrorEPKcR10UErrorCode(ptr noundef nonnull align 8 dereferenceable(76) %this1, ptr noundef @.str, ptr noundef nonnull align 4 dereferenceable(4) %17)
  br label %sw.epilog

sw.epilog:                                        ; preds = %sw.default, %sw.bb22, %sw.bb19, %sw.bb15, %sw.bb14, %sw.bb
  %18 = load ptr, ptr %errorCode.addr, align 8
  %19 = load i32, ptr %18, align 4
  %call25 = call noundef signext i8 @_ZL9U_FAILURE10UErrorCode(i32 noundef %19)
  %tobool26 = icmp ne i8 %call25, 0
  br i1 %tobool26, label %if.then27, label %if.end28

if.then27:                                        ; preds = %sw.epilog
  br label %while.end

if.end28:                                         ; preds = %sw.epilog
  br label %while.cond, !llvm.loop !4

while.end:                                        ; preds = %if.then27, %while.cond, %if.then
  ret void
}