; Function Attrs: mustprogress uwtable
define void @_ZN6icu_7519CollationRuleParser5parseERKNS_13UnicodeStringER10UErrorCode(ptr noundef nonnull align 8 dereferenceable(76) %this, ptr noundef nonnull align 8 dereferenceable(64) %ruleString, ptr noundef nonnull align 4 dereferenceable(4) %errorCode) local_unnamed_addr #1 align 2 {
entry:
  %0 = load i32, ptr %errorCode, align 4
  %cmp.i = icmp slt i32 %0, 1
  br i1 %cmp.i, label %if.end, label %while.end

if.end:                                           ; preds = %entry
  %rules = getelementptr inbounds i8, ptr %this, i64 16
  store ptr %ruleString, ptr %rules, align 8
  %ruleIndex = getelementptr inbounds i8, ptr %this, i64 72
  store i32 0, ptr %ruleIndex, align 8
  %fUnion.i.i11 = getelementptr inbounds i8, ptr %ruleString, i64 8
  %1 = load i16, ptr %fUnion.i.i11, align 8
  %cmp.i.i12 = icmp slt i16 %1, 0
  %2 = ashr i16 %1, 5
  %shr.i.i13 = sext i16 %2 to i32
  %fLength.i14 = getelementptr inbounds i8, ptr %ruleString, i64 12
  %3 = load i32, ptr %fLength.i14, align 4
  %cond.i15 = select i1 %cmp.i.i12, i32 %3, i32 %shr.i.i13
  %cmp16 = icmp sgt i32 %cond.i15, 0
  br i1 %cmp16, label %while.body.lr.ph, label %while.end

while.body.lr.ph:                                 ; preds = %if.end
  %settings = getelementptr inbounds i8, ptr %this, i64 32
  %errorReason.i = getelementptr inbounds i8, ptr %this, i64 48
  %parseError.i = getelementptr inbounds i8, ptr %this, i64 40
  br label %while.body

while.body:                                       ; preds = %while.body.lr.ph, %while.cond.backedge
  %cond.i17 = phi i32 [ %cond.i15, %while.body.lr.ph ], [ %cond.i, %while.cond.backedge ]
  %4 = phi i16 [ %1, %while.body.lr.ph ], [ %13, %while.cond.backedge ]
  %5 = phi ptr [ %ruleString, %while.body.lr.ph ], [ %12, %while.cond.backedge ]
  %6 = phi i32 [ 0, %while.body.lr.ph ], [ %11, %while.cond.backedge ]
  %cmp.i.i7 = icmp ugt i32 %cond.i17, %6
  br i1 %cmp.i.i7, label %if.then.i.i, label %_ZNK6icu_7513UnicodeString6charAtEi.exit

if.then.i.i:                                      ; preds = %while.body
  %7 = and i16 %4, 2
  %tobool.not.i.i.i = icmp eq i16 %7, 0
  %fBuffer.i.i.i = getelementptr inbounds i8, ptr %5, i64 10
  %fArray.i.i.i = getelementptr inbounds i8, ptr %5, i64 24
  %8 = load ptr, ptr %fArray.i.i.i, align 8
  %cond.i2.i.i = select i1 %tobool.not.i.i.i, ptr %8, ptr %fBuffer.i.i.i
  %idxprom.i.i = sext i32 %6 to i64
  %arrayidx.i.i = getelementptr inbounds i16, ptr %cond.i2.i.i, i64 %idxprom.i.i
  %9 = load i16, ptr %arrayidx.i.i, align 2
  br label %_ZNK6icu_7513UnicodeString6charAtEi.exit

_ZNK6icu_7513UnicodeString6charAtEi.exit:         ; preds = %while.body, %if.then.i.i
  %retval.0.i.i = phi i16 [ %9, %if.then.i.i ], [ -1, %while.body ]
  %conv = zext i16 %retval.0.i.i to i32
  %call8 = tail call noundef signext i8 @_ZN6icu_7512PatternProps12isWhiteSpaceEi(i32 noundef %conv)
  %tobool9.not = icmp eq i8 %call8, 0
  br i1 %tobool9.not, label %if.end12, label %if.then10

if.then10:                                        ; preds = %_ZNK6icu_7513UnicodeString6charAtEi.exit
  %10 = load i32, ptr %ruleIndex, align 8
  %inc = add nsw i32 %10, 1
  store i32 %inc, ptr %ruleIndex, align 8
  br label %while.cond.backedge

while.cond.backedge:                              ; preds = %sw.epilog.while.cond.backedge_crit_edge, %if.then10
  %11 = phi i32 [ %.pre, %sw.epilog.while.cond.backedge_crit_edge ], [ %inc, %if.then10 ]
  %12 = load ptr, ptr %rules, align 8
  %fUnion.i.i = getelementptr inbounds i8, ptr %12, i64 8
  %13 = load i16, ptr %fUnion.i.i, align 8
  %cmp.i.i = icmp slt i16 %13, 0
  %14 = ashr i16 %13, 5
  %shr.i.i = sext i16 %14 to i32
  %fLength.i = getelementptr inbounds i8, ptr %12, i64 12
  %15 = load i32, ptr %fLength.i, align 4
  %cond.i = select i1 %cmp.i.i, i32 %15, i32 %shr.i.i
  %cmp = icmp slt i32 %11, %cond.i
  br i1 %cmp, label %while.body, label %while.end, !llvm.loop !4

if.end12:                                         ; preds = %_ZNK6icu_7513UnicodeString6charAtEi.exit
  switch i16 %retval.0.i.i, label %sw.default [
    i16 38, label %sw.bb
    i16 91, label %sw.bb14
    i16 35, label %sw.bb15
    i16 64, label %sw.bb19
    i16 33, label %sw.bb22
  ]

sw.bb:                                            ; preds = %if.end12
  tail call void @_ZN6icu_7519CollationRuleParser14parseRuleChainER10UErrorCode(ptr noundef nonnull align 8 dereferenceable(76) %this, ptr noundef nonnull align 4 dereferenceable(4) %errorCode)
  br label %sw.epilog

sw.bb14:                                          ; preds = %if.end12
  tail call void @_ZN6icu_7519CollationRuleParser12parseSettingER10UErrorCode(ptr noundef nonnull align 8 dereferenceable(76) %this, ptr noundef nonnull align 4 dereferenceable(4) %errorCode)
  br label %sw.epilog

sw.bb15:                                          ; preds = %if.end12
  %16 = load i32, ptr %ruleIndex, align 8
  %add = add nsw i32 %16, 1
  %call17 = tail call noundef i32 @_ZNK6icu_7519CollationRuleParser11skipCommentEi(ptr noundef nonnull align 8 dereferenceable(76) %this, i32 noundef %add)
  store i32 %call17, ptr %ruleIndex, align 8
  br label %sw.epilog

sw.bb19:                                          ; preds = %if.end12
  %17 = load ptr, ptr %settings, align 8
  tail call void @_ZN6icu_7517CollationSettings7setFlagEi18UColAttributeValueiR10UErrorCode(ptr noundef nonnull align 8 dereferenceable(852) %17, i32 noundef 2048, i32 noundef 17, i32 noundef 0, ptr noundef nonnull align 4 dereferenceable(4) %errorCode)
  %18 = load i32, ptr %ruleIndex, align 8
  %inc21 = add nsw i32 %18, 1
  store i32 %inc21, ptr %ruleIndex, align 8
  br label %sw.epilog

sw.bb22:                                          ; preds = %if.end12
  %19 = load i32, ptr %ruleIndex, align 8
  %inc24 = add nsw i32 %19, 1
  store i32 %inc24, ptr %ruleIndex, align 8
  br label %sw.epilog

sw.default:                                       ; preds = %if.end12
  %20 = load i32, ptr %errorCode, align 4
  %cmp.i.i8 = icmp slt i32 %20, 1
  br i1 %cmp.i.i8, label %if.end.i, label %while.end

if.end.i:                                         ; preds = %sw.default
  store i32 3, ptr %errorCode, align 4
  store ptr @.str, ptr %errorReason.i, align 8
  %21 = load ptr, ptr %parseError.i, align 8
  %cmp.not.i = icmp eq ptr %21, null
  br i1 %cmp.not.i, label %sw.epilog, label %if.then2.i

if.then2.i:                                       ; preds = %if.end.i
  tail call void @_ZN6icu_7519CollationRuleParser15setErrorContextEv(ptr noundef nonnull align 8 dereferenceable(76) %this)
  br label %sw.epilog

sw.epilog:                                        ; preds = %if.then2.i, %if.end.i, %sw.bb22, %sw.bb19, %sw.bb15, %sw.bb14, %sw.bb
  %.pr = load i32, ptr %errorCode, align 4
  %cmp.i9 = icmp slt i32 %.pr, 1
  br i1 %cmp.i9, label %sw.epilog.while.cond.backedge_crit_edge, label %while.end

sw.epilog.while.cond.backedge_crit_edge:          ; preds = %sw.epilog
  %.pre = load i32, ptr %ruleIndex, align 8
  br label %while.cond.backedge

while.end:                                        ; preds = %sw.default, %while.cond.backedge, %sw.epilog, %if.end, %entry
  ret void
}